target datalayout = "e-m:e-p270:32:32-p271:32:32-p272:64:64-i64:64-i128:128-f80:128-n8:16:32:64-S128"
target triple = "x86_64-pc-linux-gnu"

; Function Attrs: nounwind uwtable
define hidden i64 @lexbor_conv_data_to_ulong(ptr noundef %0, i64 noundef %1) #0 {
  %3 = alloca i64, align 8
  %4 = alloca ptr, align 8
  %5 = alloca i64, align 8
  %6 = alloca ptr, align 8
  %7 = alloca ptr, align 8
  %8 = alloca i64, align 8
  %9 = alloca i64, align 8
  %10 = alloca i32, align 4
  store ptr %0, ptr %4, align 8, !tbaa !14
  store i64 %1, ptr %5, align 8, !tbaa !11
  call void @llvm.lifetime.start.p0(i64 8, ptr %6) #3
  %11 = load ptr, ptr %4, align 8, !tbaa !14
  %12 = load ptr, ptr %11, align 8, !tbaa !8
  store ptr %12, ptr %6, align 8, !tbaa !8
  call void @llvm.lifetime.start.p0(i64 8, ptr %7) #3
  %13 = load ptr, ptr %6, align 8, !tbaa !8
  %14 = load i64, ptr %5, align 8, !tbaa !11
  %15 = getelementptr inbounds nuw i8, ptr %13, i64 %14
  store ptr %15, ptr %7, align 8, !tbaa !8
  call void @llvm.lifetime.start.p0(i64 8, ptr %8) #3
  store i64 0, ptr %8, align 8, !tbaa !11
  call void @llvm.lifetime.start.p0(i64 8, ptr %9) #3
  store i64 0, ptr %9, align 8, !tbaa !11
  br label %16

16:                                               ; preds = %50, %2
  %17 = load ptr, ptr %6, align 8, !tbaa !8
  %18 = load ptr, ptr %7, align 8, !tbaa !8
  %19 = icmp ult ptr %17, %18
  br i1 %19, label %20, label %53

20:                                               ; preds = %16
  %21 = load ptr, ptr %6, align 8, !tbaa !8
  %22 = load i8, ptr %21, align 1, !tbaa !13
  %23 = zext i8 %22 to i32
  %24 = icmp slt i32 %23, 48
  br i1 %24, label %30, label %25

25:                                               ; preds = %20
  %26 = load ptr, ptr %6, align 8, !tbaa !8
  %27 = load i8, ptr %26, align 1, !tbaa !13
  %28 = zext i8 %27 to i32
  %29 = icmp sgt i32 %28, 57
  br i1 %29, label %30, label %31

30:                                               ; preds = %25, %20
  br label %54

31:                                               ; preds = %25
  %32 = load ptr, ptr %6, align 8, !tbaa !8
  %33 = load i8, ptr %32, align 1, !tbaa !13
  %34 = zext i8 %33 to i32
  %35 = sub nsw i32 %34, 48
  %36 = sext i32 %35 to i64
  %37 = load i64, ptr %9, align 8, !tbaa !11
  %38 = mul i64 %37, 10
  %39 = add i64 %36, %38
  store i64 %39, ptr %9, align 8, !tbaa !11
  %40 = load i64, ptr %8, align 8, !tbaa !11
  %41 = load i64, ptr %9, align 8, !tbaa !11
  %42 = icmp ugt i64 %40, %41
  br i1 %42, label %43, label %48

43:                                               ; preds = %31
  %44 = load ptr, ptr %6, align 8, !tbaa !8
  %45 = getelementptr inbounds i8, ptr %44, i64 -1
  %46 = load ptr, ptr %4, align 8, !tbaa !14
  store ptr %45, ptr %46, align 8, !tbaa !8
  %47 = load i64, ptr %8, align 8, !tbaa !11
  store i64 %47, ptr %3, align 8
  store i32 1, ptr %10, align 4
  br label %58

48:                                               ; preds = %31
  %49 = load i64, ptr %9, align 8, !tbaa !11
  store i64 %49, ptr %8, align 8, !tbaa !11
  br label %50

50:                                               ; preds = %48
  %51 = load ptr, ptr %6, align 8, !tbaa !8
  %52 = getelementptr inbounds nuw i8, ptr %51, i32 1
  store ptr %52, ptr %6, align 8, !tbaa !8
  br label %16

53:                                               ; preds = %16
  br label %54

54:                                               ; preds = %53, %30
  %55 = load ptr, ptr %6, align 8, !tbaa !8
  %56 = load ptr, ptr %4, align 8, !tbaa !14
  store ptr %55, ptr %56, align 8, !tbaa !8
  %57 = load i64, ptr %9, align 8, !tbaa !11
  store i64 %57, ptr %3, align 8
  store i32 1, ptr %10, align 4
  br label %58

58:                                               ; preds = %54, %43
  call void @llvm.lifetime.end.p0(i64 8, ptr %9) #3
  call void @llvm.lifetime.end.p0(i64 8, ptr %8) #3
  call void @llvm.lifetime.end.p0(i64 8, ptr %7) #3
  call void @llvm.lifetime.end.p0(i64 8, ptr %6) #3
  %59 = load i64, ptr %3, align 8
  ret i64 %59
}