; Function Attrs: nofree norecurse nosync nounwind memory(read, argmem: readwrite, inaccessiblemem: none) uwtable
define hidden i64 @lexbor_conv_data_to_ulong(ptr noundef captures(none) %0, i64 noundef %1) local_unnamed_addr #4 {
  %3 = load ptr, ptr %0, align 8, !tbaa !7
  %4 = getelementptr inbounds nuw i8, ptr %3, i64 %1
  %.not = icmp eq i64 %1, 0
  br i1 %.not, label %.loopexit, label %.lr.ph

.lr.ph:                                           ; preds = %2, %15
  %.028 = phi i64 [ %11, %15 ], [ 0, %2 ]
  %.02127 = phi ptr [ %16, %15 ], [ %3, %2 ]
  %5 = load i8, ptr %.02127, align 1, !tbaa !4
  %6 = add i8 %5, -58
  %or.cond = icmp ult i8 %6, -10
  br i1 %or.cond, label %.loopexit, label %7

7:                                                ; preds = %.lr.ph
  %8 = and i8 %5, 15
  %9 = zext nneg i8 %8 to i64
  %10 = mul i64 %.028, 10
  %11 = add i64 %10, %9
  %12 = icmp ugt i64 %.028, %11
  br i1 %12, label %13, label %15

13:                                               ; preds = %7
  %14 = getelementptr inbounds i8, ptr %.02127, i64 -1
  br label %.loopexit

15:                                               ; preds = %7
  %16 = getelementptr inbounds nuw i8, ptr %.02127, i64 1
  %17 = icmp ult ptr %16, %4
  br i1 %17, label %.lr.ph, label %.loopexit

.loopexit:                                        ; preds = %15, %.lr.ph, %2, %13
  %.025 = phi i64 [ %.028, %13 ], [ 0, %2 ], [ %11, %15 ], [ %.028, %.lr.ph ]
  %storemerge = phi ptr [ %14, %13 ], [ %3, %2 ], [ %16, %15 ], [ %.02127, %.lr.ph ]
  store ptr %storemerge, ptr %0, align 8, !tbaa !7
  ret i64 %.025
}